target datalayout = "e-m:e-p270:32:32-p271:32:32-p272:64:64-i64:64-i128:128-f80:128-n8:16:32:64-S128"
target triple = "x86_64-pc-linux-gnu"

%class.btSequentialImpulseConstraintSolverMt = type { %class.btSequentialImpulseConstraintSolver, %struct.btBatchedConstraints, %struct.btBatchedConstraints, i32, i8, i8, [2 x i8], %class.btAlignedObjectArray.10, %class.btAlignedObjectArray.2, %class.btSpinMutex, [64 x i8], %class.btSpinMutex, %class.btAlignedObjectArray.8 }
%class.btSequentialImpulseConstraintSolver = type { %class.btConstraintSolver, %class.btAlignedObjectArray, %class.btAlignedObjectArray.0, %class.btAlignedObjectArray.0, %class.btAlignedObjectArray.0, %class.btAlignedObjectArray.0, %class.btAlignedObjectArray.2, %class.btAlignedObjectArray.2, %class.btAlignedObjectArray.2, %class.btAlignedObjectArray.4, i32, i32, %class.btAlignedObjectArray.2, ptr, ptr, ptr, i32, float, i64, %struct.btSolverAnalyticsData }
%class.btConstraintSolver = type { ptr }
%class.btAlignedObjectArray = type <{ [4 x i8], i32, i32, [4 x i8], ptr, i8, [7 x i8] }>
%class.btAlignedObjectArray.0 = type <{ [4 x i8], i32, i32, [4 x i8], ptr, i8, [7 x i8] }>
%class.btAlignedObjectArray.4 = type <{ [4 x i8], i32, i32, [4 x i8], ptr, i8, [7 x i8] }>
%struct.btSolverAnalyticsData = type { i32, i32, i32, i32, i32, double }
%struct.btBatchedConstraints = type { %class.btAlignedObjectArray.2, %class.btAlignedObjectArray.6, %class.btAlignedObjectArray.6, %class.btAlignedObjectArray.8, %class.btAlignedObjectArray.2, ptr }
%class.btAlignedObjectArray.6 = type <{ [4 x i8], i32, i32, [4 x i8], ptr, i8, [7 x i8] }>
%class.btAlignedObjectArray.10 = type <{ [4 x i8], i32, i32, [4 x i8], ptr, i8, [7 x i8] }>
%class.btAlignedObjectArray.2 = type <{ [4 x i8], i32, i32, [4 x i8], ptr, i8, [7 x i8] }>
%class.btSpinMutex = type { i32 }
%class.btAlignedObjectArray.8 = type <{ [4 x i8], i32, i32, [4 x i8], ptr, i8, [7 x i8] }>
%class.btVector3 = type { [4 x float] }
%struct.btSolverConstraint = type { %class.btVector3, %class.btVector3, %class.btVector3, %class.btVector3, %class.btVector3, %class.btVector3, float, float, float, float, float, float, float, float, float, %union.anon.12, i32, i32, i32, i32 }
%union.anon.12 = type { ptr }
%struct.btSolverBody = type { %class.btTransform, %class.btVector3, %class.btVector3, %class.btVector3, %class.btVector3, %class.btVector3, %class.btVector3, %class.btVector3, %class.btVector3, %class.btVector3, %class.btVector3, %class.btVector3, ptr }
%class.btTransform = type { %class.btMatrix3x3, %class.btVector3 }
%class.btMatrix3x3 = type { [3 x %class.btVector3] }

; Function Attrs: inlinehint mustprogress nounwind uwtable
define linkonce_odr dso_local noundef nonnull align 8 dereferenceable(248) ptr @_ZN20btAlignedObjectArrayI12btSolverBodyEixEi(ptr noundef nonnull align 8 dereferenceable(25) %0, i32 noundef %1) #4 comdat align 2 {
  %3 = alloca ptr, align 8
  %4 = alloca i32, align 4
  store ptr %0, ptr %3, align 8, !tbaa !101
  store i32 %1, ptr %4, align 4, !tbaa !9
  %5 = load ptr, ptr %3, align 8
  %6 = getelementptr inbounds nuw %class.btAlignedObjectArray, ptr %5, i32 0, i32 4
  %7 = load ptr, ptr %6, align 8, !tbaa !103
  %8 = load i32, ptr %4, align 4, !tbaa !9
  %9 = sext i32 %8 to i64
  %10 = getelementptr inbounds %struct.btSolverBody, ptr %7, i64 %9
  ret ptr %10
}

; Function Attrs: inlinehint mustprogress nounwind uwtable
define linkonce_odr dso_local noundef nonnull align 8 dereferenceable(160) ptr @_ZN20btAlignedObjectArrayI18btSolverConstraintEixEi(ptr noundef nonnull align 8 dereferenceable(25) %0, i32 noundef %1) #4 comdat align 2 {
  %3 = alloca ptr, align 8
  %4 = alloca i32, align 4
  store ptr %0, ptr %3, align 8, !tbaa !98
  store i32 %1, ptr %4, align 4, !tbaa !9
  %5 = load ptr, ptr %3, align 8
  %6 = getelementptr inbounds nuw %class.btAlignedObjectArray.0, ptr %5, i32 0, i32 4
  %7 = load ptr, ptr %6, align 8, !tbaa !100
  %8 = load i32, ptr %4, align 4, !tbaa !9
  %9 = sext i32 %8 to i64
  %10 = getelementptr inbounds %struct.btSolverConstraint, ptr %7, i64 %9
  ret ptr %10
}

; Function Attrs: inlinehint mustprogress nounwind uwtable
define linkonce_odr dso_local noundef nonnull align 4 dereferenceable(4) ptr @_ZN20btAlignedObjectArrayIiEixEi(ptr noundef nonnull align 8 dereferenceable(25) %0, i32 noundef %1) #4 comdat align 2 {
  %3 = alloca ptr, align 8
  %4 = alloca i32, align 4
  store ptr %0, ptr %3, align 8, !tbaa !56
  store i32 %1, ptr %4, align 4, !tbaa !9
  %5 = load ptr, ptr %3, align 8
  %6 = getelementptr inbounds nuw %class.btAlignedObjectArray.2, ptr %5, i32 0, i32 4
  %7 = load ptr, ptr %6, align 8, !tbaa !106
  %8 = load i32, ptr %4, align 4, !tbaa !9
  %9 = sext i32 %8 to i64
  %10 = getelementptr inbounds i32, ptr %7, i64 %9
  ret ptr %10
}

; Function Attrs: inlinehint mustprogress nounwind uwtable
define linkonce_odr dso_local noundef nonnull align 4 dereferenceable(4) ptr @_ZNK20btAlignedObjectArrayIiEixEi(ptr noundef nonnull align 8 dereferenceable(25) %0, i32 noundef %1) #4 comdat align 2 {
  %3 = alloca ptr, align 8
  %4 = alloca i32, align 4
  store ptr %0, ptr %3, align 8, !tbaa !56
  store i32 %1, ptr %4, align 4, !tbaa !9
  %5 = load ptr, ptr %3, align 8
  %6 = getelementptr inbounds nuw %class.btAlignedObjectArray.2, ptr %5, i32 0, i32 4
  %7 = load ptr, ptr %6, align 8, !tbaa !106
  %8 = load i32, ptr %4, align 4, !tbaa !9
  %9 = sext i32 %8 to i64
  %10 = getelementptr inbounds i32, ptr %7, i64 %9
  ret ptr %10
}

; Function Attrs: mustprogress uwtable
define dso_local noundef float @_ZN37btSequentialImpulseConstraintSolverMt48resolveMultipleContactRollingFrictionConstraintsERK20btAlignedObjectArrayIiEii(ptr noundef nonnull align 8 dereferenceable(920) %0, ptr noundef nonnull align 8 dereferenceable(25) %1, i32 noundef %2, i32 noundef %3) #2 align 2 {
  %5 = alloca ptr, align 8
  %6 = alloca ptr, align 8
  %7 = alloca i32, align 4
  %8 = alloca i32, align 4
  %9 = alloca float, align 4
  %10 = alloca i32, align 4
  %11 = alloca i32, align 4
  %12 = alloca i32, align 4
  %13 = alloca i32, align 4
  %14 = alloca float, align 4
  %15 = alloca i32, align 4
  %16 = alloca i32, align 4
  %17 = alloca i32, align 4
  %18 = alloca ptr, align 8
  %19 = alloca float, align 4
  %20 = alloca float, align 4
  store ptr %0, ptr %5, align 8, !tbaa !12
  store ptr %1, ptr %6, align 8, !tbaa !56
  store i32 %2, ptr %7, align 4, !tbaa !9
  store i32 %3, ptr %8, align 4, !tbaa !9
  %21 = load ptr, ptr %5, align 8
  call void @llvm.lifetime.start.p0(i64 4, ptr %9) #16
  store float 0.000000e+00, ptr %9, align 4, !tbaa !85
  call void @llvm.lifetime.start.p0(i64 4, ptr %10) #16
  %22 = load i32, ptr %7, align 4, !tbaa !9
  store i32 %22, ptr %10, align 4, !tbaa !9
  br label %23

23:                                               ; preds = %116, %4
  %24 = load i32, ptr %10, align 4, !tbaa !9
  %25 = load i32, ptr %8, align 4, !tbaa !9
  %26 = icmp slt i32 %24, %25
  br i1 %26, label %28, label %27

27:                                               ; preds = %23
  store i32 2, ptr %11, align 4
  call void @llvm.lifetime.end.p0(i64 4, ptr %10) #16
  br label %119

28:                                               ; preds = %23
  call void @llvm.lifetime.start.p0(i64 4, ptr %12) #16
  %29 = load ptr, ptr %6, align 8, !tbaa !56
  %30 = load i32, ptr %10, align 4, !tbaa !9
  %31 = call noundef nonnull align 4 dereferenceable(4) ptr @_ZNK20btAlignedObjectArrayIiEixEi(ptr noundef nonnull align 8 dereferenceable(25) %29, i32 noundef %30)
  %32 = load i32, ptr %31, align 4, !tbaa !9
  store i32 %32, ptr %12, align 4, !tbaa !9
  call void @llvm.lifetime.start.p0(i64 4, ptr %13) #16
  %33 = getelementptr inbounds nuw %class.btSequentialImpulseConstraintSolverMt, ptr %21, i32 0, i32 8
  %34 = load i32, ptr %12, align 4, !tbaa !9
  %35 = call noundef nonnull align 4 dereferenceable(4) ptr @_ZN20btAlignedObjectArrayIiEixEi(ptr noundef nonnull align 8 dereferenceable(25) %33, i32 noundef %34)
  %36 = load i32, ptr %35, align 4, !tbaa !9
  store i32 %36, ptr %13, align 4, !tbaa !9
  %37 = load i32, ptr %13, align 4, !tbaa !9
  %38 = icmp sge i32 %37, 0
  br i1 %38, label %39, label %115

39:                                               ; preds = %28
  call void @llvm.lifetime.start.p0(i64 4, ptr %14) #16
  %40 = getelementptr inbounds nuw %class.btSequentialImpulseConstraintSolver, ptr %21, i32 0, i32 2
  %41 = load i32, ptr %12, align 4, !tbaa !9
  %42 = call noundef nonnull align 8 dereferenceable(160) ptr @_ZN20btAlignedObjectArrayI18btSolverConstraintEixEi(ptr noundef nonnull align 8 dereferenceable(25) %40, i32 noundef %41)
  %43 = getelementptr inbounds nuw %struct.btSolverConstraint, ptr %42, i32 0, i32 7
  %44 = load float, ptr %43, align 4, !tbaa !275
  store float %44, ptr %14, align 4, !tbaa !85
  %45 = load float, ptr %14, align 4, !tbaa !85
  %46 = fcmp ogt float %45, 0.000000e+00
  br i1 %46, label %47, label %114

47:                                               ; preds = %39
  call void @llvm.lifetime.start.p0(i64 4, ptr %15) #16
  %48 = load i32, ptr %13, align 4, !tbaa !9
  store i32 %48, ptr %15, align 4, !tbaa !9
  call void @llvm.lifetime.start.p0(i64 4, ptr %16) #16
  %49 = load i32, ptr %15, align 4, !tbaa !9
  %50 = add nsw i32 %49, 3
  store i32 %50, ptr %16, align 4, !tbaa !9
  call void @llvm.lifetime.start.p0(i64 4, ptr %17) #16
  %51 = load i32, ptr %15, align 4, !tbaa !9
  store i32 %51, ptr %17, align 4, !tbaa !9
  br label %52

52:                                               ; preds = %109, %47
  %53 = load i32, ptr %17, align 4, !tbaa !9
  %54 = load i32, ptr %16, align 4, !tbaa !9
  %55 = icmp slt i32 %53, %54
  br i1 %55, label %57, label %56

56:                                               ; preds = %52
  store i32 5, ptr %11, align 4
  br label %112

57:                                               ; preds = %52
  call void @llvm.lifetime.start.p0(i64 8, ptr %18) #16
  %58 = getelementptr inbounds nuw %class.btSequentialImpulseConstraintSolver, ptr %21, i32 0, i32 5
  %59 = load i32, ptr %17, align 4, !tbaa !9
  %60 = call noundef nonnull align 8 dereferenceable(160) ptr @_ZN20btAlignedObjectArrayI18btSolverConstraintEixEi(ptr noundef nonnull align 8 dereferenceable(25) %58, i32 noundef %59)
  store ptr %60, ptr %18, align 8, !tbaa !68
  %61 = load ptr, ptr %18, align 8, !tbaa !68
  %62 = getelementptr inbounds nuw %struct.btSolverConstraint, ptr %61, i32 0, i32 17
  %63 = load i32, ptr %62, align 4, !tbaa !89
  %64 = load i32, ptr %12, align 4, !tbaa !9
  %65 = icmp ne i32 %63, %64
  br i1 %65, label %66, label %67

66:                                               ; preds = %57
  store i32 5, ptr %11, align 4
  br label %106

67:                                               ; preds = %57
  call void @llvm.lifetime.start.p0(i64 4, ptr %19) #16
  %68 = load ptr, ptr %18, align 8, !tbaa !68
  %69 = getelementptr inbounds nuw %struct.btSolverConstraint, ptr %68, i32 0, i32 8
  %70 = load float, ptr %69, align 8, !tbaa !276
  %71 = load float, ptr %14, align 4, !tbaa !85
  %72 = fmul float %70, %71
  store float %72, ptr %19, align 4, !tbaa !85
  %73 = load float, ptr %19, align 4, !tbaa !85
  %74 = load ptr, ptr %18, align 8, !tbaa !68
  %75 = getelementptr inbounds nuw %struct.btSolverConstraint, ptr %74, i32 0, i32 8
  %76 = load float, ptr %75, align 8, !tbaa !276
  %77 = fcmp ogt float %73, %76
  br i1 %77, label %78, label %82

78:                                               ; preds = %67
  %79 = load ptr, ptr %18, align 8, !tbaa !68
  %80 = getelementptr inbounds nuw %struct.btSolverConstraint, ptr %79, i32 0, i32 8
  %81 = load float, ptr %80, align 8, !tbaa !276
  store float %81, ptr %19, align 4, !tbaa !85
  br label %82

82:                                               ; preds = %78, %67
  %83 = load float, ptr %19, align 4, !tbaa !85
  %84 = fneg float %83
  %85 = load ptr, ptr %18, align 8, !tbaa !68
  %86 = getelementptr inbounds nuw %struct.btSolverConstraint, ptr %85, i32 0, i32 12
  store float %84, ptr %86, align 8, !tbaa !277
  %87 = load float, ptr %19, align 4, !tbaa !85
  %88 = load ptr, ptr %18, align 8, !tbaa !68
  %89 = getelementptr inbounds nuw %struct.btSolverConstraint, ptr %88, i32 0, i32 13
  store float %87, ptr %89, align 4, !tbaa !278
  call void @llvm.lifetime.start.p0(i64 4, ptr %20) #16
  %90 = getelementptr inbounds nuw %class.btSequentialImpulseConstraintSolver, ptr %21, i32 0, i32 1
  %91 = load ptr, ptr %18, align 8, !tbaa !68
  %92 = getelementptr inbounds nuw %struct.btSolverConstraint, ptr %91, i32 0, i32 18
  %93 = load i32, ptr %92, align 8, !tbaa !69
  %94 = call noundef nonnull align 8 dereferenceable(248) ptr @_ZN20btAlignedObjectArrayI12btSolverBodyEixEi(ptr noundef nonnull align 8 dereferenceable(25) %90, i32 noundef %93)
  %95 = getelementptr inbounds nuw %class.btSequentialImpulseConstraintSolver, ptr %21, i32 0, i32 1
  %96 = load ptr, ptr %18, align 8, !tbaa !68
  %97 = getelementptr inbounds nuw %struct.btSolverConstraint, ptr %96, i32 0, i32 19
  %98 = load i32, ptr %97, align 4, !tbaa !72
  %99 = call noundef nonnull align 8 dereferenceable(248) ptr @_ZN20btAlignedObjectArrayI12btSolverBodyEixEi(ptr noundef nonnull align 8 dereferenceable(25) %95, i32 noundef %98)
  %100 = load ptr, ptr %18, align 8, !tbaa !68
  %101 = call noundef float @_ZN35btSequentialImpulseConstraintSolver33resolveSingleConstraintRowGenericER12btSolverBodyS1_RK18btSolverConstraint(ptr noundef nonnull align 8 dereferenceable(408) %21, ptr noundef nonnull align 8 dereferenceable(248) %94, ptr noundef nonnull align 8 dereferenceable(248) %99, ptr noundef nonnull align 8 dereferenceable(160) %100)
  store float %101, ptr %20, align 4, !tbaa !85
  %102 = load float, ptr %20, align 4, !tbaa !85
  %103 = load float, ptr %20, align 4, !tbaa !85
  %104 = load float, ptr %9, align 4, !tbaa !85
  %105 = call float @llvm.fmuladd.f32(float %102, float %103, float %104)
  store float %105, ptr %9, align 4, !tbaa !85
  call void @llvm.lifetime.end.p0(i64 4, ptr %20) #16
  call void @llvm.lifetime.end.p0(i64 4, ptr %19) #16
  store i32 0, ptr %11, align 4
  br label %106

106:                                              ; preds = %82, %66
  call void @llvm.lifetime.end.p0(i64 8, ptr %18) #16
  %107 = load i32, ptr %11, align 4
  switch i32 %107, label %112 [
    i32 0, label %108
  ]

108:                                              ; preds = %106
  br label %109

109:                                              ; preds = %108
  %110 = load i32, ptr %17, align 4, !tbaa !9
  %111 = add nsw i32 %110, 1
  store i32 %111, ptr %17, align 4, !tbaa !9
  br label %52, !llvm.loop !281

112:                                              ; preds = %106, %56
  call void @llvm.lifetime.end.p0(i64 4, ptr %17) #16
  br label %113

113:                                              ; preds = %112
  call void @llvm.lifetime.end.p0(i64 4, ptr %16) #16
  call void @llvm.lifetime.end.p0(i64 4, ptr %15) #16
  br label %114

114:                                              ; preds = %113, %39
  call void @llvm.lifetime.end.p0(i64 4, ptr %14) #16
  br label %115

115:                                              ; preds = %114, %28
  call void @llvm.lifetime.end.p0(i64 4, ptr %13) #16
  call void @llvm.lifetime.end.p0(i64 4, ptr %12) #16
  br label %116

116:                                              ; preds = %115
  %117 = load i32, ptr %10, align 4, !tbaa !9
  %118 = add nsw i32 %117, 1
  store i32 %118, ptr %10, align 4, !tbaa !9
  br label %23, !llvm.loop !282

119:                                              ; preds = %27
  %120 = load float, ptr %9, align 4, !tbaa !85
  store i32 1, ptr %11, align 4
  call void @llvm.lifetime.end.p0(i64 4, ptr %9) #16
  ret float %120
}