; Function Attrs: mustprogress uwtable
define dso_local noundef float @_ZN37btSequentialImpulseConstraintSolverMt48resolveMultipleContactRollingFrictionConstraintsERK20btAlignedObjectArrayIiEii(ptr noundef nonnull align 8 dereferenceable(920) %0, ptr noundef nonnull readonly align 8 captures(none) dereferenceable(25) %1, i32 noundef %2, i32 noundef %3) local_unnamed_addr #0 align 2 {
  %5 = icmp slt i32 %2, %3
  br i1 %5, label %.lr.ph, label %._crit_edge

.lr.ph:                                           ; preds = %4
  %6 = getelementptr inbounds nuw i8, ptr %1, i64 16
  %7 = getelementptr inbounds nuw i8, ptr %0, i64 800
  %8 = getelementptr inbounds nuw i8, ptr %0, i64 56
  %9 = getelementptr inbounds nuw i8, ptr %0, i64 152
  %10 = getelementptr inbounds nuw i8, ptr %0, i64 24
  %11 = sext i32 %2 to i64
  br label %12

._crit_edge:                                      ; preds = %.loopexit, %4
  %.0.lcssa = phi float [ 0.000000e+00, %4 ], [ %.1, %.loopexit ]
  ret float %.0.lcssa

12:                                               ; preds = %.lr.ph, %.loopexit
  %indvars.iv51 = phi i64 [ %11, %.lr.ph ], [ %indvars.iv.next52, %.loopexit ]
  %.049 = phi float [ 0.000000e+00, %.lr.ph ], [ %.1, %.loopexit ]
  %13 = load ptr, ptr %6, align 8, !tbaa !15
  %14 = getelementptr inbounds i32, ptr %13, i64 %indvars.iv51
  %15 = load i32, ptr %14, align 4, !tbaa !67
  %16 = load ptr, ptr %7, align 8, !tbaa !15
  %17 = sext i32 %15 to i64
  %18 = getelementptr inbounds i32, ptr %16, i64 %17
  %19 = load i32, ptr %18, align 4, !tbaa !67
  %20 = icmp sgt i32 %19, -1
  br i1 %20, label %21, label %.loopexit

21:                                               ; preds = %12
  %22 = load ptr, ptr %8, align 8, !tbaa !68
  %23 = getelementptr inbounds %struct.btSolverConstraint, ptr %22, i64 %17, i32 7
  %24 = load float, ptr %23, align 4, !tbaa !236
  %25 = fcmp ogt float %24, 0.000000e+00
  br i1 %25, label %26, label %.loopexit

26:                                               ; preds = %21
  %27 = zext nneg i32 %19 to i64
  %28 = add nuw nsw i32 %19, 2
  br label %29

29:                                               ; preds = %26, %34
  %indvars.iv = phi i64 [ %27, %26 ], [ %indvars.iv.next, %34 ]
  %.347 = phi float [ %.049, %26 ], [ %52, %34 ]
  %30 = load ptr, ptr %9, align 8, !tbaa !68
  %31 = getelementptr inbounds nuw %struct.btSolverConstraint, ptr %30, i64 %indvars.iv
  %32 = getelementptr inbounds nuw i8, ptr %31, i64 148
  %33 = load i32, ptr %32, align 4, !tbaa !85
  %.not = icmp eq i32 %33, %15
  br i1 %.not, label %34, label %.loopexit

34:                                               ; preds = %29
  %35 = getelementptr inbounds nuw i8, ptr %31, i64 104
  %36 = load float, ptr %35, align 8, !tbaa !237
  %37 = fmul float %24, %36
  %38 = fcmp ogt float %37, %36
  %.036 = select i1 %38, float %36, float %37
  %39 = fneg float %.036
  %40 = getelementptr inbounds nuw i8, ptr %31, i64 120
  store float %39, ptr %40, align 8, !tbaa !238
  %41 = getelementptr inbounds nuw i8, ptr %31, i64 124
  store float %.036, ptr %41, align 4, !tbaa !239
  %42 = getelementptr inbounds nuw i8, ptr %31, i64 152
  %43 = load i32, ptr %42, align 8, !tbaa !69
  %44 = load ptr, ptr %10, align 8, !tbaa !73
  %45 = sext i32 %43 to i64
  %46 = getelementptr inbounds %struct.btSolverBody, ptr %44, i64 %45
  %47 = getelementptr inbounds nuw i8, ptr %31, i64 156
  %48 = load i32, ptr %47, align 4, !tbaa !72
  %49 = sext i32 %48 to i64
  %50 = getelementptr inbounds %struct.btSolverBody, ptr %44, i64 %49
  %51 = tail call noundef float @_ZN35btSequentialImpulseConstraintSolver33resolveSingleConstraintRowGenericER12btSolverBodyS1_RK18btSolverConstraint(ptr noundef nonnull align 8 dereferenceable(408) %0, ptr noundef nonnull align 8 dereferenceable(248) %46, ptr noundef nonnull align 8 dereferenceable(248) %50, ptr noundef nonnull align 8 dereferenceable(160) %31)
  %52 = tail call float @llvm.fmuladd.f32(float %51, float %51, float %.347)
  %indvars.iv.next = add nuw nsw i64 %indvars.iv, 1
  %53 = trunc nuw i64 %indvars.iv to i32
  %54 = icmp sgt i32 %28, %53
  br i1 %54, label %29, label %.loopexit, !llvm.loop !242

.loopexit:                                        ; preds = %29, %34, %21, %12
  %.1 = phi float [ %.049, %12 ], [ %.049, %21 ], [ %52, %34 ], [ %.347, %29 ]
  %indvars.iv.next52 = add nsw i64 %indvars.iv51, 1
  %lftr.wideiv = trunc i64 %indvars.iv.next52 to i32
  %exitcond.not = icmp eq i32 %3, %lftr.wideiv
  br i1 %exitcond.not, label %._crit_edge, label %12, !llvm.loop !243
}